target datalayout = "e-m:e-p270:32:32-p271:32:32-p272:64:64-i64:64-i128:128-f80:128-n8:16:32:64-S128"
target triple = "x86_64-pc-linux-gnu"

%"class.sat::literal" = type { i32 }
%class.symbol = type { ptr }
%"class.smt::theory_lra" = type { %"class.smt::theory.base", %"class.smt::theory_opt", ptr }
%"class.smt::theory.base" = type <{ ptr, i32, [4 x i8], ptr, ptr, %class.ptr_vector, %class.svector, i32, i8 }>
%class.ptr_vector = type { %class.vector }
%class.vector = type { ptr }
%class.svector = type { %class.vector.0 }
%class.vector.0 = type { ptr }
%"class.smt::theory_opt" = type { ptr }
%class.arith_util = type { ptr, ptr }
%class.u_map = type { %class.map }
%class.map = type { %class.table2map }
%class.table2map = type { %class.core_hashtable.10 }
%class.core_hashtable.10 = type <{ ptr, i32, i32, i32, [4 x i8] }>
%class.obj_ref = type { ptr, ptr }
%class.ptr_vector.53 = type { %class.vector.54 }
%class.vector.54 = type { ptr }
%class.svector.88 = type { %class.vector.89 }
%class.vector.89 = type { ptr }
%class.ptr_vector.6 = type { %class.vector.7 }
%class.vector.7 = type { ptr }
%class.svector.194 = type { %class.vector.195 }
%class.vector.195 = type { ptr }
%class.ref_vector = type { %class.ref_vector_core }
%class.ref_vector_core = type { %class.ref_manager_wrapper, %class.ptr_vector.6 }
%class.ref_manager_wrapper = type { ptr }
%class.uint_set = type { %class.svector }
%"struct.smt::theory_lra::imp::var_value_hash" = type { ptr }
%"struct.smt::theory_lra::imp::var_value_eq" = type { ptr }
%"class.smt::theory_lra::imp" = type { ptr, ptr, %class.arith_util, %"class.smt::arith_eq_adapter", %class.vector.295, %class.ptr_vector.296, i32, %class.vector.298, i32, i32, i32, i32, %class.svector.299, %class.svector.194, %class.svector.291, %class.svector.88, %class.svector.301, %class.ptr_vector.6, %class.ptr_vector.53, %class.ptr_vector.53, %class.vector.303, %class.u_map.304, %class.vector.303, %class.svector, %class.svector, i32, %class.svector, %class.svector.309, i32, %class.indexed_uint_set, i32, %class.scoped_ptr.311, %class.scoped_ptr.312, %class.int_hashtable, %class.svector.315, %"struct.lp_api::stats", ptr, %class.scoped_ptr.317, %"class.smt::theory_lra::imp::resource_limit", %class.ptr_vector.318, %class.symbol, %class.vector.320, %"class.std::vector", %"class.lp::lp_bound_propagator", %class.vector.295, %class.map.327, %class.vector.331, i8, %"class.nla::lemma", i8, %class.svector.194, %class.svector, %class.vector.331, %class.vector.331, %class.vector.331, %"class.lp::explanation", %class.svector.194, %class.svector.291, %class.vector.320, i32, i32, %"class.sat::literal", %class.ref_vector, %class.obj_ref }
%"class.smt::arith_eq_adapter" = type { %"struct.smt::arith_eq_adapter_stats", ptr, ptr, %class.obj_pair_map.286, %class.svector.291, %class.svector.293 }
%"struct.smt::arith_eq_adapter_stats" = type { i32 }
%class.obj_pair_map.286 = type { %class.core_hashtable.287 }
%class.core_hashtable.287 = type <{ ptr, i32, i32, i32, [4 x i8] }>
%class.svector.293 = type { %class.vector.294 }
%class.vector.294 = type { ptr }
%class.ptr_vector.296 = type { %class.vector.297 }
%class.vector.297 = type { ptr }
%class.vector.298 = type { ptr }
%class.svector.299 = type { %class.vector.300 }
%class.vector.300 = type { ptr }
%class.svector.301 = type { %class.vector.302 }
%class.vector.302 = type { ptr }
%class.u_map.304 = type { %class.map.305 }
%class.map.305 = type { %class.table2map.306 }
%class.table2map.306 = type { %class.core_hashtable.307 }
%class.core_hashtable.307 = type <{ ptr, i32, i32, i32, [4 x i8] }>
%class.vector.303 = type { ptr }
%class.svector.309 = type { %class.vector.310 }
%class.vector.310 = type { ptr }
%class.indexed_uint_set = type { i32, %class.svector, %class.svector }
%class.scoped_ptr.311 = type { ptr }
%class.scoped_ptr.312 = type { ptr }
%class.int_hashtable = type { %class.core_hashtable.base.314, [4 x i8] }
%class.core_hashtable.base.314 = type <{ %"struct.smt::theory_lra::imp::var_value_hash", %"struct.smt::theory_lra::imp::var_value_eq", ptr, i32, i32, i32 }>
%class.svector.315 = type { %class.vector.316 }
%class.vector.316 = type { ptr }
%"struct.lp_api::stats" = type { i32, i32, i32, i32, i32, i32, i32, i32, i32, i32, i32, i32, i32, i32, i32, i32 }
%class.scoped_ptr.317 = type { ptr }
%"class.smt::theory_lra::imp::resource_limit" = type { %"class.lp::lp_resource_limit", ptr }
%"class.lp::lp_resource_limit" = type { ptr }
%class.ptr_vector.318 = type { %class.vector.319 }
%class.vector.319 = type { ptr }
%"class.std::vector" = type { %"struct.std::_Vector_base" }
%"struct.std::_Vector_base" = type { %"struct.std::_Vector_base<lp::implied_bound, std_allocator<lp::implied_bound>>::_Vector_impl" }
%"struct.std::_Vector_base<lp::implied_bound, std_allocator<lp::implied_bound>>::_Vector_impl" = type { %"struct.std::_Vector_base<lp::implied_bound, std_allocator<lp::implied_bound>>::_Vector_impl_data" }
%"struct.std::_Vector_base<lp::implied_bound, std_allocator<lp::implied_bound>>::_Vector_impl_data" = type { ptr, ptr, ptr }
%"class.lp::lp_bound_propagator" = type { %class.uint_set, %class.u_map, %class.u_map, ptr, ptr, %class.map.321, %class.map.321, %class.map.321, ptr }
%class.map.321 = type { %class.table2map.322 }
%class.table2map.322 = type { %class.core_hashtable.323 }
%class.core_hashtable.323 = type <{ ptr, i32, i32, i32, [4 x i8] }>
%class.vector.295 = type { ptr }
%class.map.327 = type { %class.table2map.328 }
%class.table2map.328 = type { %class.core_hashtable.329 }
%class.core_hashtable.329 = type <{ ptr, i32, i32, i32, [4 x i8] }>
%"class.nla::lemma" = type { %class.vector.332, %"class.lp::explanation" }
%class.vector.332 = type { ptr }
%class.vector.331 = type { ptr }
%"class.lp::explanation" = type { %class.vector.331, %class.hashtable }
%class.hashtable = type { %class.core_hashtable.base.334, [4 x i8] }
%class.core_hashtable.base.334 = type <{ ptr, i32, i32, i32 }>
%class.svector.291 = type { %class.vector.292 }
%class.vector.292 = type { ptr }
%class.vector.320 = type { ptr }
%class.ast = type { i32, i32, i32, i32 }
%class.decl = type { %class.ast, %class.symbol, ptr }
%class.decl_info = type <{ i32, i32, %class.vector.320, i8, [7 x i8] }>

; Function Attrs: mustprogress nounwind uwtable
define linkonce_odr hidden noundef i32 @_ZNK9decl_info13get_decl_kindEv(ptr noundef nonnull align 8 dereferenceable(17) %0) #4 comdat align 2 {
  %2 = alloca ptr, align 8
  store ptr %0, ptr %2, align 8, !tbaa !1258
  %3 = load ptr, ptr %2, align 8
  %4 = getelementptr inbounds nuw %class.decl_info, ptr %3, i32 0, i32 1
  %5 = load i32, ptr %4, align 4, !tbaa !1262
  ret i32 %5
}

; Function Attrs: mustprogress nounwind uwtable
define linkonce_odr hidden noundef i32 @_ZNK9decl_info13get_family_idEv(ptr noundef nonnull align 8 dereferenceable(17) %0) #4 comdat align 2 {
  %2 = alloca ptr, align 8
  store ptr %0, ptr %2, align 8, !tbaa !1258
  %3 = load ptr, ptr %2, align 8
  %4 = getelementptr inbounds nuw %class.decl_info, ptr %3, i32 0, i32 0
  %5 = load i32, ptr %4, align 8, !tbaa !1259
  ret i32 %5
}

; Function Attrs: mustprogress uwtable
define linkonce_odr hidden noundef i32 @_ZNK4decl13get_decl_kindEv(ptr noundef nonnull align 8 dereferenceable(32) %0) #6 comdat align 2 {
  %2 = alloca ptr, align 8
  store ptr %0, ptr %2, align 8, !tbaa !1253
  %3 = load ptr, ptr %2, align 8
  %4 = getelementptr inbounds nuw %class.decl, ptr %3, i32 0, i32 2
  %5 = load ptr, ptr %4, align 8, !tbaa !1255
  %6 = icmp eq ptr %5, null
  br i1 %6, label %7, label %8

7:                                                ; preds = %1
  br label %12

8:                                                ; preds = %1
  %9 = getelementptr inbounds nuw %class.decl, ptr %3, i32 0, i32 2
  %10 = load ptr, ptr %9, align 8, !tbaa !1255
  %11 = call noundef i32 @_ZNK9decl_info13get_decl_kindEv(ptr noundef nonnull align 8 dereferenceable(17) %10)
  br label %12

12:                                               ; preds = %8, %7
  %13 = phi i32 [ -1, %7 ], [ %11, %8 ]
  ret i32 %13
}

; Function Attrs: mustprogress uwtable
define linkonce_odr hidden noundef i32 @_ZNK4decl13get_family_idEv(ptr noundef nonnull align 8 dereferenceable(32) %0) #6 comdat align 2 {
  %2 = alloca ptr, align 8
  store ptr %0, ptr %2, align 8, !tbaa !1253
  %3 = load ptr, ptr %2, align 8
  %4 = getelementptr inbounds nuw %class.decl, ptr %3, i32 0, i32 2
  %5 = load ptr, ptr %4, align 8, !tbaa !1255
  %6 = icmp eq ptr %5, null
  br i1 %6, label %7, label %8

7:                                                ; preds = %1
  br label %12

8:                                                ; preds = %1
  %9 = getelementptr inbounds nuw %class.decl, ptr %3, i32 0, i32 2
  %10 = load ptr, ptr %9, align 8, !tbaa !1255
  %11 = call noundef i32 @_ZNK9decl_info13get_family_idEv(ptr noundef nonnull align 8 dereferenceable(17) %10)
  br label %12

12:                                               ; preds = %8, %7
  %13 = phi i32 [ -1, %7 ], [ %11, %8 ]
  ret i32 %13
}

; Function Attrs: inlinehint mustprogress uwtable
define linkonce_odr hidden noundef zeroext i1 @_Z10is_decl_ofPK9func_declii(ptr noundef %0, i32 noundef %1, i32 noundef %2) #11 comdat {
  %4 = alloca ptr, align 8
  %5 = alloca i32, align 4
  %6 = alloca i32, align 4
  store ptr %0, ptr %4, align 8, !tbaa !716
  store i32 %1, ptr %5, align 4, !tbaa !8
  store i32 %2, ptr %6, align 4, !tbaa !8
  %7 = load ptr, ptr %4, align 8, !tbaa !716
  %8 = call noundef i32 @_ZNK4decl13get_family_idEv(ptr noundef nonnull align 8 dereferenceable(32) %7)
  %9 = load i32, ptr %5, align 4, !tbaa !8
  %10 = icmp eq i32 %8, %9
  br i1 %10, label %11, label %16

11:                                               ; preds = %3
  %12 = load ptr, ptr %4, align 8, !tbaa !716
  %13 = call noundef i32 @_ZNK4decl13get_decl_kindEv(ptr noundef nonnull align 8 dereferenceable(32) %12)
  %14 = load i32, ptr %6, align 4, !tbaa !8
  %15 = icmp eq i32 %13, %14
  br label %16

16:                                               ; preds = %11, %3
  %17 = phi i1 [ false, %3 ], [ %15, %11 ]
  ret i1 %17
}

; Function Attrs: mustprogress uwtable
define linkonce_odr hidden noundef zeroext i1 @_ZNK17arith_recognizers7is_mod0EPK9func_decl(ptr noundef nonnull align 1 dereferenceable(1) %0, ptr noundef %1) #6 comdat align 2 {
  %3 = alloca ptr, align 8
  %4 = alloca ptr, align 8
  store ptr %0, ptr %3, align 8, !tbaa !1296
  store ptr %1, ptr %4, align 8, !tbaa !716
  %5 = load ptr, ptr %4, align 8, !tbaa !716
  %6 = call noundef zeroext i1 @_Z10is_decl_ofPK9func_declii(ptr noundef %5, i32 noundef 5, i32 noundef 17)
  ret i1 %6
}

; Function Attrs: mustprogress uwtable
define linkonce_odr hidden noundef zeroext i1 @_ZNK17arith_recognizers7is_rem0EPK9func_decl(ptr noundef nonnull align 1 dereferenceable(1) %0, ptr noundef %1) #6 comdat align 2 {
  %3 = alloca ptr, align 8
  %4 = alloca ptr, align 8
  store ptr %0, ptr %3, align 8, !tbaa !1296
  store ptr %1, ptr %4, align 8, !tbaa !716
  %5 = load ptr, ptr %4, align 8, !tbaa !716
  %6 = call noundef zeroext i1 @_Z10is_decl_ofPK9func_declii(ptr noundef %5, i32 noundef 5, i32 noundef 17)
  ret i1 %6
}

; Function Attrs: mustprogress uwtable
define linkonce_odr hidden noundef zeroext i1 @_ZNK17arith_recognizers9is_power0EPK9func_decl(ptr noundef nonnull align 1 dereferenceable(1) %0, ptr noundef %1) #6 comdat align 2 {
  %3 = alloca ptr, align 8
  %4 = alloca ptr, align 8
  store ptr %0, ptr %3, align 8, !tbaa !1296
  store ptr %1, ptr %4, align 8, !tbaa !716
  %5 = load ptr, ptr %4, align 8, !tbaa !716
  %6 = call noundef zeroext i1 @_Z10is_decl_ofPK9func_declii(ptr noundef %5, i32 noundef 5, i32 noundef 23)
  ret i1 %6
}

; Function Attrs: mustprogress uwtable
define linkonce_odr hidden noundef zeroext i1 @_ZNK17arith_recognizers8is_idiv0EPK9func_decl(ptr noundef nonnull align 1 dereferenceable(1) %0, ptr noundef %1) #6 comdat align 2 {
  %3 = alloca ptr, align 8
  %4 = alloca ptr, align 8
  store ptr %0, ptr %3, align 8, !tbaa !1296
  store ptr %1, ptr %4, align 8, !tbaa !716
  %5 = load ptr, ptr %4, align 8, !tbaa !716
  %6 = call noundef zeroext i1 @_Z10is_decl_ofPK9func_declii(ptr noundef %5, i32 noundef 5, i32 noundef 13)
  ret i1 %6
}

; Function Attrs: mustprogress uwtable
define linkonce_odr hidden noundef zeroext i1 @_ZNK17arith_recognizers7is_div0EPK9func_decl(ptr noundef nonnull align 1 dereferenceable(1) %0, ptr noundef %1) #6 comdat align 2 {
  %3 = alloca ptr, align 8
  %4 = alloca ptr, align 8
  store ptr %0, ptr %3, align 8, !tbaa !1296
  store ptr %1, ptr %4, align 8, !tbaa !716
  %5 = load ptr, ptr %4, align 8, !tbaa !716
  %6 = call noundef zeroext i1 @_Z10is_decl_ofPK9func_declii(ptr noundef %5, i32 noundef 5, i32 noundef 12)
  ret i1 %6
}

; Function Attrs: mustprogress uwtable
define linkonce_odr hidden noundef zeroext i1 @_ZN3smt10theory_lra3imp19include_func_interpEP9func_decl(ptr noundef nonnull align 8 dereferenceable(928) %0, ptr noundef %1) #6 comdat align 2 {
  %3 = alloca ptr, align 8
  %4 = alloca ptr, align 8
  store ptr %0, ptr %3, align 8, !tbaa !535
  store ptr %1, ptr %4, align 8, !tbaa !716
  %5 = load ptr, ptr %3, align 8
  %6 = getelementptr inbounds nuw %"class.smt::theory_lra::imp", ptr %5, i32 0, i32 2
  %7 = load ptr, ptr %4, align 8, !tbaa !716
  %8 = call noundef zeroext i1 @_ZNK17arith_recognizers7is_div0EPK9func_decl(ptr noundef nonnull align 1 dereferenceable(1) %6, ptr noundef %7)
  br i1 %8, label %25, label %9

9:                                                ; preds = %2
  %10 = getelementptr inbounds nuw %"class.smt::theory_lra::imp", ptr %5, i32 0, i32 2
  %11 = load ptr, ptr %4, align 8, !tbaa !716
  %12 = call noundef zeroext i1 @_ZNK17arith_recognizers8is_idiv0EPK9func_decl(ptr noundef nonnull align 1 dereferenceable(1) %10, ptr noundef %11)
  br i1 %12, label %25, label %13

13:                                               ; preds = %9
  %14 = getelementptr inbounds nuw %"class.smt::theory_lra::imp", ptr %5, i32 0, i32 2
  %15 = load ptr, ptr %4, align 8, !tbaa !716
  %16 = call noundef zeroext i1 @_ZNK17arith_recognizers9is_power0EPK9func_decl(ptr noundef nonnull align 1 dereferenceable(1) %14, ptr noundef %15)
  br i1 %16, label %25, label %17

17:                                               ; preds = %13
  %18 = getelementptr inbounds nuw %"class.smt::theory_lra::imp", ptr %5, i32 0, i32 2
  %19 = load ptr, ptr %4, align 8, !tbaa !716
  %20 = call noundef zeroext i1 @_ZNK17arith_recognizers7is_rem0EPK9func_decl(ptr noundef nonnull align 1 dereferenceable(1) %18, ptr noundef %19)
  br i1 %20, label %25, label %21

21:                                               ; preds = %17
  %22 = getelementptr inbounds nuw %"class.smt::theory_lra::imp", ptr %5, i32 0, i32 2
  %23 = load ptr, ptr %4, align 8, !tbaa !716
  %24 = call noundef zeroext i1 @_ZNK17arith_recognizers7is_mod0EPK9func_decl(ptr noundef nonnull align 1 dereferenceable(1) %22, ptr noundef %23)
  br label %25

25:                                               ; preds = %21, %17, %13, %9, %2
  %26 = phi i1 [ true, %17 ], [ true, %13 ], [ true, %9 ], [ true, %2 ], [ %24, %21 ]
  ret i1 %26
}

; Function Attrs: mustprogress uwtable
define hidden noundef zeroext i1 @_ZN3smt10theory_lra19include_func_interpEP9func_decl(ptr noundef nonnull align 8 dereferenceable(72) %0, ptr noundef %1) unnamed_addr #6 align 2 {
  %3 = alloca ptr, align 8
  %4 = alloca ptr, align 8
  store ptr %0, ptr %3, align 8, !tbaa !28
  store ptr %1, ptr %4, align 8, !tbaa !716
  %5 = load ptr, ptr %3, align 8
  %6 = getelementptr inbounds nuw %"class.smt::theory_lra", ptr %5, i32 0, i32 2
  %7 = load ptr, ptr %6, align 8, !tbaa !34
  %8 = load ptr, ptr %4, align 8, !tbaa !716
  %9 = call noundef zeroext i1 @_ZN3smt10theory_lra3imp19include_func_interpEP9func_decl(ptr noundef nonnull align 8 dereferenceable(928) %7, ptr noundef %8)
  ret i1 %9
}