; Function Attrs: mustprogress nofree norecurse nosync nounwind willreturn memory(read, inaccessiblemem: none) uwtable
define hidden noundef zeroext i1 @_ZN3smt10theory_lra19include_func_interpEP9func_decl(ptr nonnull readonly align 8 captures(none) %0, ptr noundef readonly captures(none) %1) unnamed_addr #11 align 2 {
  %3 = getelementptr inbounds nuw i8, ptr %1, i64 24
  %4 = load ptr, ptr %3, align 8, !tbaa !724
  %5 = icmp eq ptr %4, null
  br i1 %5, label %_ZN3smt10theory_lra3imp19include_func_interpEP9func_decl.exit, label %_ZNK4decl13get_family_idEv.exit.thread.i.i.i

_ZNK4decl13get_family_idEv.exit.thread.i.i.i:     ; preds = %2
  %6 = load i32, ptr %4, align 8, !tbaa !727
  %7 = icmp eq i32 %6, 5
  br i1 %7, label %_ZNK17arith_recognizers7is_div0EPK9func_decl.exit.i, label %_ZN3smt10theory_lra3imp19include_func_interpEP9func_decl.exit

_ZNK17arith_recognizers7is_div0EPK9func_decl.exit.i: ; preds = %_ZNK4decl13get_family_idEv.exit.thread.i.i.i
  %8 = getelementptr inbounds nuw i8, ptr %4, i64 4
  %9 = load i32, ptr %8, align 4, !tbaa !747
  %10 = icmp ult i32 %9, 24
  br i1 %10, label %switch.lookup, label %_ZN3smt10theory_lra3imp19include_func_interpEP9func_decl.exit

switch.lookup:                                    ; preds = %_ZNK17arith_recognizers7is_div0EPK9func_decl.exit.i
  %switch.cast = trunc nuw i32 %9 to i24
  %switch.downshift = lshr i24 -8245248, %switch.cast
  %switch.masked = trunc i24 %switch.downshift to i1
  br label %_ZN3smt10theory_lra3imp19include_func_interpEP9func_decl.exit

_ZN3smt10theory_lra3imp19include_func_interpEP9func_decl.exit: ; preds = %_ZNK17arith_recognizers7is_div0EPK9func_decl.exit.i, %switch.lookup, %2, %_ZNK4decl13get_family_idEv.exit.thread.i.i.i
  %11 = phi i1 [ false, %2 ], [ false, %_ZNK4decl13get_family_idEv.exit.thread.i.i.i ], [ %switch.masked, %switch.lookup ], [ false, %_ZNK17arith_recognizers7is_div0EPK9func_decl.exit.i ]
  ret i1 %11
}